(dp0
S"02 Don't Let Me Down (feat. Daya).wav"
p1
(dp2
S'rms'
p3
F0.30385804449295384
sS'time_skewness'
p4
F0.07709078831783446
sS'spectral_rolloff'
p5
cnumpy.core.multiarray
scalar
p6
(cnumpy
dtype
p7
(S'f8'
p8
I0
I1
tp9
Rp10
(I3
S'<'
p11
NNNI-1
I-1
I0
tp12
bS'\x0b\xaf\xe0\xee\x82[\xbb@'
p13
tp14
Rp15
sS'time_variance'
p16
g6
(g7
(S'f4'
p17
I0
I1
tp18
Rp19
(I3
S'<'
p20
NNNI-1
I-1
I0
tp21
bS'++\xba='
p22
tp23
Rp24
sS'spectral_kurtosis'
p25
F7038.217800928456
sS'spectral_mean'
p26
g6
(g10
S'\x9b\x11\xed\xbd\xfe\to@'
p27
tp28
Rp29
sS'spectral_crestFactor'
p30
g6
(g10
S'l/\xd6\x93\x04\x98\x91@'
p31
tp32
Rp33
sS'zcr'
p34
F0.04751105568771706
sS'spectral_flatness'
p35
g6
(g10
S'NY\x16I\xcf\x01\xd0?'
p36
tp37
Rp38
sS'time_mean'
p39
g6
(g19
S'\x7f3R\xba'
p40
tp41
Rp42
sS'average_mfccs'
p43
(lp44
F27.28008928603122
aF4.613332256678357
aF0.3748031881373588
aF0.4493019760153103
aF-0.12667842311096886
aF0.4195168047281811
aF-0.7129680944345052
aF0.19810606654722615
aF-0.01894183731497231
aF0.6572253077664663
aF-0.19267762348950096
aF-0.4465775984433032
aF-0.3666146799018234
asS'time_kurtosis'
p45
F0.6202674305968165
sS'spectral_energy'
p46
g6
(g10
S'6\xe4\xe8\x1a\xe5\x9e)A'
p47
tp48
Rp49
sS'spectral_skewness'
p50
F46.89262238958471
sS'spectral_centroid'
p51
g6
(g10
S'\xdf\x17\x82\xa9\x1dY\xa9@'
p52
tp53
Rp54
sS'loudness'
p55
g6
(g10
S'>\x0eJ(\xa2-\xe9?'
p56
tp57
Rp58
sS'spectral_variance'
p59
g6
(g10
S"5\xff\xe9b:\xbd'A"
p60
tp61
Rp62
sS'spectral_spread'
p63
g6
(g10
S'\xbe\xacTL\xdc\xc1\xae@'
p64
tp65
Rp66
ss.(dp0
S'05 Work from Home (feat. Ty Dolla $ign).wav'
p1
(dp2
S'rms'
p3
F0.31886984778303984
sS'time_skewness'
p4
F-0.012409240271252243
sS'spectral_rolloff'
p5
cnumpy.core.multiarray
scalar
p6
(cnumpy
dtype
p7
(S'f8'
p8
I0
I1
tp9
Rp10
(I3
S'<'
p11
NNNI-1
I-1
I0
tp12
bS'\xf6\x81!kC\x84\xc3@'
p13
tp14
Rp15
sS'time_variance'
p16
g6
(g7
(S'f4'
p17
I0
I1
tp18
Rp19
(I3
S'<'
p20
NNNI-1
I-1
I0
tp21
bS'<\xe9\xcd='
p22
tp23
Rp24
sS'spectral_kurtosis'
p25
F4876.41645441376
sS'spectral_mean'
p26
g6
(g10
S'JwaD;\xb4p@'
p27
tp28
Rp29
sS'spectral_crestFactor'
p30
g6
(g10
S' y\xae/\xc6\x8b\x8c@'
p31
tp32
Rp33
sS'zcr'
p34
F0.05706442732964338
sS'spectral_flatness'
p35
g6
(g10
S'\xec\xcek+\xdel\xd5?'
p36
tp37
Rp38
sS'time_mean'
p39
g6
(g19
S'\xec\xea\x908'
p40
tp41
Rp42
sS'average_mfccs'
p43
(lp44
F25.3293379240039
aF5.541837283011657
aF-1.354248329843496
aF-0.17861707010479955
aF-0.6490255024653869
aF0.294588894797714
aF0.5190382840535442
aF0.5517635933692626
aF0.32312031818901166
aF0.1366206669680255
aF-0.11984603929791794
aF-0.35915632684844295
aF-0.24583200311423034
asS'time_kurtosis'
p45
F0.04603659989365516
sS'spectral_energy'
p46
g6
(g10
S'\x8aa\xca\xaaYF-A'
p47
tp48
Rp49
sS'spectral_skewness'
p50
F42.77782283939962
sS'spectral_centroid'
p51
g6
(g10
S'm`A\x0f7 \xb0@'
p52
tp53
Rp54
sS'loudness'
p55
g6
(g10
S'7Y\xa7bL\xb7\xe6?'
p56
tp57
Rp58
sS'spectral_variance'
p59
g6
(g10
S'\xd8N\xeb\xc1L\x18+A'
p60
tp61
Rp62
sS'spectral_spread'
p63
g6
(g10
S'\x1d\x1e%\xb3\xad\xf1\xb2@'
p64
tp65
Rp66
ss.(dp0
S'continuous_ih.wav'
p1
(dp2
S'rms'
p3
F0.019932862857159173
sS'time_skewness'
p4
F0.007200819119468477
sS'spectral_rolloff'
p5
cnumpy.core.multiarray
scalar
p6
(cnumpy
dtype
p7
(S'f8'
p8
I0
I1
tp9
Rp10
(I3
S'<'
p11
NNNI-1
I-1
I0
tp12
bS'\xcbk\x04\xa0,\x1f\x86@'
p13
tp14
Rp15
sS'time_variance'
p16
g6
(g7
(S'f4'
p17
I0
I1
tp18
Rp19
(I3
S'<'
p20
NNNI-1
I-1
I0
tp21
bS'C9\xcc9'
p22
tp23
Rp24
sS'spectral_kurtosis'
p25
F583.5574564518864
sS'spectral_mean'
p26
g6
(g10
S'\xce\xa7\x9a|\xaa/\xf0?'
p27
tp28
Rp29
sS'spectral_crestFactor'
p30
g6
(g10
S'rKSF~\xfa\x92@'
p31
tp32
Rp33
sS'zcr'
p34
F0.02109075077267749
sS'spectral_flatness'
p35
g6
(g10
S'\xde\x9b\xf4\xf8\xc1{w?'
p36
tp37
Rp38
sS'time_mean'
p39
g6
(g19
S'\xcc\xa36;'
p40
tp41
Rp42
sS'average_mfccs'
p43
(lp44
F-33.83076760461983
aF17.987070136940225
aF-20.200998920449223
aF-11.734703074812133
aF-1.2405715755747937
aF0.6421116538853279
aF6.727120559753008
aF7.791072811188003
aF6.527450374433579
aF5.216096077865542
aF2.634211427668264
aF1.0902803707257769
aF0.8113333785509786
asS'time_kurtosis'
p45
F-1.1828774081524853
sS'spectral_energy'
p46
g6
(g10
S'\xeb\xc2\x00N\xf7\xe6e@'
p47
tp48
Rp49
sS'spectral_skewness'
p50
F18.902639583387348
sS'spectral_centroid'
p51
g6
(g10
S'\x90\xca\xe5\x00)9\x83@'
p52
tp53
Rp54
sS'loudness'
p55
g6
(g10
S'+\x1a\xf3\xe7\x1fb\xd5?'
p56
tp57
Rp58
sS'spectral_variance'
p59
g6
(g10
S'cQ\xc3\xbf\xbf3f@'
p60
tp61
Rp62
sS'spectral_spread'
p63
g6
(g10
S'3d\xaf\xfe\xd1\xed\x8b@'
p64
tp65
Rp66
ss.(dp0
S'test.wav'
p1
(dp2
S'rms'
p3
F4.987808483829949e-06
sS'time_skewness'
p4
F-0.042983936431915545
sS'spectral_rolloff'
p5
cnumpy.core.multiarray
scalar
p6
(cnumpy
dtype
p7
(S'f8'
p8
I0
I1
tp9
Rp10
(I3
S'<'
p11
NNNI-1
I-1
I0
tp12
bS'\xa3\x06u\xd0W.\xac@'
p13
tp14
Rp15
sS'time_variance'
p16
g6
(g7
(S'f4'
p17
I0
I1
tp18
Rp19
(I3
S'<'
p20
NNNI-1
I-1
I0
tp21
bS'\x04L\xda-'
p22
tp23
Rp24
sS'spectral_kurtosis'
p25
F257.59218049796874
sS'spectral_mean'
p26
g6
(g10
S'\xff\xb9\xe25\xa6\xe6`?'
p27
tp28
Rp29
sS'spectral_crestFactor'
p30
g6
(g10
S'q\x92\xe5\x07\xd64m@'
p31
tp32
Rp33
sS'zcr'
p34
F0.04444774046214877
sS'spectral_flatness'
p35
g6
(g10
S'!\xc9\x85\x9a\xfd\x89\xb8?'
p36
tp37
Rp38
sS'time_mean'
p39
g6
(g19
S'ZW\xdc\xae'
p40
tp41
Rp42
sS'average_mfccs'
p43
(lp44
F-75.7561101953765
aF2.881025914733486
aF-0.1516241703203646
aF-0.7335756171761071
aF-1.038832050198891
aF-0.5865501844731675
aF-0.522577413464262
aF-0.23555468886819372
aF-0.40125721611039056
aF-0.24249179618903308
aF-0.5683457295444202
aF-0.44319640791922144
aF-0.204145398797738
asS'time_kurtosis'
p45
F1.011042466310463
sS'spectral_energy'
p46
g6
(g10
S'\x08-5\x19\x80\xb3\x0b?'
p47
tp48
Rp49
sS'spectral_skewness'
p50
F11.047219298699476
sS'spectral_centroid'
p51
g6
(g10
S'\xcd\xd6\xc7\xa56\x10\x9f@'
p52
tp53
Rp54
sS'loudness'
p55
g6
(g10
S'Cn:\xcfo\x1c\xf4?'
p56
tp57
Rp58
sS'spectral_variance'
p59
g6
(g10
S'\xad\x8f\x1985x\t?'
p60
tp61
Rp62
sS'spectral_spread'
p63
g6
(g10
S'\x1e<\xff\xf2>\xdc\xa2@'
p64
tp65
Rp66
ss.